target datalayout = "e-m:e-p270:32:32-p271:32:32-p272:64:64-i64:64-i128:128-f80:128-n8:16:32:64-S128"
target triple = "x86_64-pc-linux-gnu"

%struct.Int128_ = type { i64, i64 }

; Function Attrs: nounwind uwtable
define dso_local i32 @i128_scomp(i64 %0, i64 %1, i64 %2, i64 %3) #0 {
  %5 = alloca i32, align 4
  %6 = alloca %struct.Int128_, align 8
  %7 = alloca %struct.Int128_, align 8
  %8 = alloca i8, align 1
  %9 = alloca i8, align 1
  %10 = getelementptr inbounds { i64, i64 }, ptr %6, i32 0, i32 0
  store i64 %0, ptr %10, align 8
  %11 = getelementptr inbounds { i64, i64 }, ptr %6, i32 0, i32 1
  store i64 %1, ptr %11, align 8
  %12 = getelementptr inbounds { i64, i64 }, ptr %7, i32 0, i32 0
  store i64 %2, ptr %12, align 8
  %13 = getelementptr inbounds { i64, i64 }, ptr %7, i32 0, i32 1
  store i64 %3, ptr %13, align 8
  %14 = getelementptr inbounds %struct.Int128_, ptr %6, i32 0, i32 0
  %15 = load i64, ptr %14, align 8
  %16 = and i64 %15, -9223372036854775808
  %17 = icmp ne i64 %16, 0
  %18 = zext i1 %17 to i8
  store i8 %18, ptr %8, align 1
  %19 = getelementptr inbounds %struct.Int128_, ptr %7, i32 0, i32 0
  %20 = load i64, ptr %19, align 8
  %21 = and i64 %20, -9223372036854775808
  %22 = icmp ne i64 %21, 0
  %23 = zext i1 %22 to i8
  store i8 %23, ptr %9, align 1
  %24 = load i8, ptr %8, align 1
  %25 = trunc i8 %24 to i1
  %26 = zext i1 %25 to i32
  %27 = load i8, ptr %9, align 1
  %28 = trunc i8 %27 to i1
  %29 = zext i1 %28 to i32
  %30 = icmp ne i32 %26, %29
  br i1 %30, label %31, label %35

31:                                               ; preds = %4
  %32 = load i8, ptr %8, align 1
  %33 = trunc i8 %32 to i1
  %34 = select i1 %33, i32 -1, i32 1
  store i32 %34, ptr %5, align 4
  br label %63

35:                                               ; preds = %4
  %36 = getelementptr inbounds %struct.Int128_, ptr %6, i32 0, i32 0
  %37 = load i64, ptr %36, align 8
  %38 = getelementptr inbounds %struct.Int128_, ptr %7, i32 0, i32 0
  %39 = load i64, ptr %38, align 8
  %40 = icmp ugt i64 %37, %39
  br i1 %40, label %41, label %42

41:                                               ; preds = %35
  store i32 1, ptr %5, align 4
  br label %63

42:                                               ; preds = %35
  %43 = getelementptr inbounds %struct.Int128_, ptr %6, i32 0, i32 0
  %44 = load i64, ptr %43, align 8
  %45 = getelementptr inbounds %struct.Int128_, ptr %7, i32 0, i32 0
  %46 = load i64, ptr %45, align 8
  %47 = icmp ult i64 %44, %46
  br i1 %47, label %48, label %49

48:                                               ; preds = %42
  store i32 -1, ptr %5, align 4
  br label %63

49:                                               ; preds = %42
  %50 = getelementptr inbounds %struct.Int128_, ptr %6, i32 0, i32 1
  %51 = load i64, ptr %50, align 8
  %52 = getelementptr inbounds %struct.Int128_, ptr %7, i32 0, i32 1
  %53 = load i64, ptr %52, align 8
  %54 = icmp eq i64 %51, %53
  br i1 %54, label %55, label %56

55:                                               ; preds = %49
  store i32 0, ptr %5, align 4
  br label %63

56:                                               ; preds = %49
  %57 = getelementptr inbounds %struct.Int128_, ptr %6, i32 0, i32 1
  %58 = load i64, ptr %57, align 8
  %59 = getelementptr inbounds %struct.Int128_, ptr %7, i32 0, i32 1
  %60 = load i64, ptr %59, align 8
  %61 = icmp ugt i64 %58, %60
  %62 = select i1 %61, i32 1, i32 -1
  store i32 %62, ptr %5, align 4
  br label %63

63:                                               ; preds = %56, %55, %48, %41, %31
  %64 = load i32, ptr %5, align 4
  ret i32 %64
}