; Function Attrs: mustprogress nofree norecurse nosync nounwind willreturn memory(none) uwtable
define dso_local range(i32 -1, 2) i32 @i128_scomp(i64 %0, i64 %1, i64 %2, i64 %3) local_unnamed_addr #1 {
  %.not.unshifted = xor i64 %2, %0
  %.not = icmp sgt i64 %.not.unshifted, -1
  br i1 %.not, label %8, label %5

5:                                                ; preds = %4
  %6 = icmp slt i64 %0, 0
  %7 = select i1 %6, i32 -1, i32 1
  br label %17

8:                                                ; preds = %4
  %9 = icmp ugt i64 %0, %2
  br i1 %9, label %17, label %10

10:                                               ; preds = %8
  %11 = icmp ult i64 %0, %2
  br i1 %11, label %17, label %12

12:                                               ; preds = %10
  %13 = icmp eq i64 %1, %3
  br i1 %13, label %17, label %14

14:                                               ; preds = %12
  %15 = icmp ugt i64 %1, %3
  %16 = select i1 %15, i32 1, i32 -1
  br label %17

17:                                               ; preds = %12, %10, %8, %14, %5
  %.0 = phi i32 [ %7, %5 ], [ %16, %14 ], [ 1, %8 ], [ -1, %10 ], [ 0, %12 ]
  ret i32 %.0
}